target datalayout = "e-m:e-p270:32:32-p271:32:32-p272:64:64-i64:64-i128:128-f80:128-n8:16:32:64-S128"
target triple = "x86_64-pc-linux-gnu"

%struct.manifest_files_hash = type { i64, i32, i32, i32, ptr, ptr }

; Function Attrs: nounwind uwtable
define dso_local void @manifest_files_reset(ptr noundef %0) #0 {
  %2 = alloca ptr, align 8
  store ptr %0, ptr %2, align 8
  %3 = load ptr, ptr %2, align 8
  %4 = getelementptr inbounds nuw %struct.manifest_files_hash, ptr %3, i32 0, i32 4
  %5 = load ptr, ptr %4, align 8
  %6 = load ptr, ptr %2, align 8
  %7 = getelementptr inbounds nuw %struct.manifest_files_hash, ptr %6, i32 0, i32 0
  %8 = load i64, ptr %7, align 8
  %9 = mul i64 40, %8
  call void @llvm.memset.p0.i64(ptr align 8 %5, i8 0, i64 %9, i1 false)
  %10 = load ptr, ptr %2, align 8
  %11 = getelementptr inbounds nuw %struct.manifest_files_hash, ptr %10, i32 0, i32 1
  store i32 0, ptr %11, align 8
  ret void
}