; Function Attrs: mustprogress nofree norecurse nosync nounwind willreturn memory(write, argmem: readwrite, inaccessiblemem: none) uwtable
define dso_local void @manifest_files_reset(ptr noundef captures(none) initializes((8, 12)) %0) local_unnamed_addr #3 {
  %2 = getelementptr inbounds nuw i8, ptr %0, i64 24
  %3 = load ptr, ptr %2, align 8
  %4 = load i64, ptr %0, align 8
  %5 = mul i64 %4, 40
  tail call void @llvm.memset.p0.i64(ptr align 8 %3, i8 0, i64 %5, i1 false)
  %6 = getelementptr inbounds nuw i8, ptr %0, i64 8
  store i32 0, ptr %6, align 8
  ret void
}